; Function Attrs: mustprogress uwtable
define noundef ptr @_Z29dtAllocObstacleAvoidanceQueryv() local_unnamed_addr #0 {
  %1 = tail call noundef ptr @_Z7dtAllocm11dtAllocHint(i64 noundef 80, i32 noundef 0)
  %.not = icmp eq ptr %1, null
  br i1 %.not, label %3, label %2

2:                                                ; preds = %0
  tail call void @_ZN24dtObstacleAvoidanceQueryC1Ev(ptr noundef nonnull align 8 dereferenceable(76) %1)
  br label %3

3:                                                ; preds = %0, %2
  ret ptr %1
}